target datalayout = "e-m:e-p270:32:32-p271:32:32-p272:64:64-i64:64-i128:128-f80:128-n8:16:32:64-S128"
target triple = "x86_64-pc-linux-gnu"

%"struct.vcpkg::msg::MessageT.231" = type { i64 }
%"struct.vcpkg::LocalizedString" = type { %"class.std::__cxx11::basic_string" }
%"class.std::__cxx11::basic_string" = type { %"struct.std::__cxx11::basic_string<char>::_Alloc_hider", i64, %union.anon }
%"struct.std::__cxx11::basic_string<char>::_Alloc_hider" = type { ptr }
%union.anon = type { i64, [8 x i8] }
%"struct.vcpkg::Unicode::Utf8Decoder" = type { i32, ptr, ptr, ptr }
%"struct.std::_Vector_base.607" = type { %"struct.std::_Vector_base<std::pair<vcpkg::SourceLoc, std::__cxx11::basic_string<char>>, std::allocator<std::pair<vcpkg::SourceLoc, std::__cxx11::basic_string<char>>>>::_Vector_impl" }
%"struct.std::_Vector_base<std::pair<vcpkg::SourceLoc, std::__cxx11::basic_string<char>>, std::allocator<std::pair<vcpkg::SourceLoc, std::__cxx11::basic_string<char>>>>::_Vector_impl" = type { %"struct.std::_Vector_base<std::pair<vcpkg::SourceLoc, std::__cxx11::basic_string<char>>, std::allocator<std::pair<vcpkg::SourceLoc, std::__cxx11::basic_string<char>>>>::_Vector_impl_data" }
%"struct.std::_Vector_base<std::pair<vcpkg::SourceLoc, std::__cxx11::basic_string<char>>, std::allocator<std::pair<vcpkg::SourceLoc, std::__cxx11::basic_string<char>>>>::_Vector_impl_data" = type { ptr, ptr, ptr }
%"struct.std::pair.611" = type { %"struct.vcpkg::SourceLoc", %"class.std::__cxx11::basic_string" }
%"struct.vcpkg::SourceLoc" = type { %"struct.vcpkg::Unicode::Utf8Decoder", %"struct.vcpkg::Unicode::Utf8Decoder", i32, i32 }

@.str.184 = private unnamed_addr constant [5 x i8] c"read\00", align 1
@.str.185 = private unnamed_addr constant [6 x i8] c"write\00", align 1
@.str.186 = private unnamed_addr constant [10 x i8] c"readwrite\00", align 1
@_ZN5vcpkg29msgExpectedReadWriteReadWriteE = external global %"struct.vcpkg::msg::MessageT.231", align 8

; Function Attrs: mustprogress nounwind uwtable
define linkonce_odr dso_local void @_ZN5vcpkg15LocalizedStringD2Ev(ptr noundef nonnull align 8 dereferenceable(32) %0) unnamed_addr #1 comdat align 2 {
  %2 = alloca ptr, align 8
  store ptr %0, ptr %2, align 8
  %3 = load ptr, ptr %2, align 8
  %4 = getelementptr inbounds %"struct.vcpkg::LocalizedString", ptr %3, i32 0, i32 0
  call void @_ZNSt7__cxx1112basic_stringIcSt11char_traitsIcESaIcEED1Ev(ptr noundef nonnull align 8 dereferenceable(32) %4) #8
  ret void
}

; Function Attrs: mustprogress nounwind uwtable
define linkonce_odr dso_local noundef zeroext i1 @_ZSteqIcSt11char_traitsIcESaIcEEbRKNSt7__cxx1112basic_stringIT_T0_T1_EEPKS5_(ptr noundef nonnull align 8 dereferenceable(32) %0, ptr noundef %1) #1 comdat {
  %3 = alloca ptr, align 8
  %4 = alloca ptr, align 8
  store ptr %0, ptr %3, align 8
  store ptr %1, ptr %4, align 8
  %5 = load ptr, ptr %3, align 8
  %6 = load ptr, ptr %4, align 8
  %7 = call noundef i32 @_ZNKSt7__cxx1112basic_stringIcSt11char_traitsIcESaIcEE7compareEPKc(ptr noundef nonnull align 8 dereferenceable(32) %5, ptr noundef %6) #8
  %8 = icmp eq i32 %7, 0
  ret i1 %8
}

; Function Attrs: mustprogress nounwind uwtable
define linkonce_odr dso_local noundef nonnull align 8 dereferenceable(104) ptr @_ZNKSt6vectorISt4pairIN5vcpkg9SourceLocENSt7__cxx1112basic_stringIcSt11char_traitsIcESaIcEEEESaIS9_EEixEm(ptr noundef nonnull align 8 dereferenceable(24) %0, i64 noundef %1) #1 comdat align 2 {
  %3 = alloca ptr, align 8
  %4 = alloca i64, align 8
  store ptr %0, ptr %3, align 8
  store i64 %1, ptr %4, align 8
  %5 = load ptr, ptr %3, align 8
  %6 = getelementptr inbounds %"struct.std::_Vector_base.607", ptr %5, i32 0, i32 0
  %7 = getelementptr inbounds %"struct.std::_Vector_base<std::pair<vcpkg::SourceLoc, std::__cxx11::basic_string<char>>, std::allocator<std::pair<vcpkg::SourceLoc, std::__cxx11::basic_string<char>>>>::_Vector_impl_data", ptr %6, i32 0, i32 0
  %8 = load ptr, ptr %7, align 8
  %9 = load i64, ptr %4, align 8
  %10 = getelementptr inbounds %"struct.std::pair.611", ptr %8, i64 %9
  ret ptr %10
}

; Function Attrs: mustprogress nounwind uwtable
define linkonce_odr dso_local noundef i64 @_ZNKSt6vectorISt4pairIN5vcpkg9SourceLocENSt7__cxx1112basic_stringIcSt11char_traitsIcESaIcEEEESaIS9_EE4sizeEv(ptr noundef nonnull align 8 dereferenceable(24) %0) #1 comdat align 2 {
  %2 = alloca ptr, align 8
  store ptr %0, ptr %2, align 8
  %3 = load ptr, ptr %2, align 8
  %4 = getelementptr inbounds %"struct.std::_Vector_base.607", ptr %3, i32 0, i32 0
  %5 = getelementptr inbounds %"struct.std::_Vector_base<std::pair<vcpkg::SourceLoc, std::__cxx11::basic_string<char>>, std::allocator<std::pair<vcpkg::SourceLoc, std::__cxx11::basic_string<char>>>>::_Vector_impl_data", ptr %4, i32 0, i32 1
  %6 = load ptr, ptr %5, align 8
  %7 = getelementptr inbounds %"struct.std::_Vector_base.607", ptr %3, i32 0, i32 0
  %8 = getelementptr inbounds %"struct.std::_Vector_base<std::pair<vcpkg::SourceLoc, std::__cxx11::basic_string<char>>, std::allocator<std::pair<vcpkg::SourceLoc, std::__cxx11::basic_string<char>>>>::_Vector_impl_data", ptr %7, i32 0, i32 0
  %9 = load ptr, ptr %8, align 8
  %10 = ptrtoint ptr %6 to i64
  %11 = ptrtoint ptr %9 to i64
  %12 = sub i64 %10, %11
  %13 = sdiv exact i64 %12, 104
  ret i64 %13
}

; Function Attrs: mustprogress uwtable
define internal void @_ZN12_GLOBAL__N_120ConfigSegmentsParser16handle_readwriteERbS1_RKSt6vectorISt4pairIN5vcpkg9SourceLocENSt7__cxx1112basic_stringIcSt11char_traitsIcESaIcEEEESaISC_EEm(ptr noundef nonnull align 8 dereferenceable(168) %0, ptr noundef nonnull align 1 dereferenceable(1) %1, ptr noundef nonnull align 1 dereferenceable(1) %2, ptr noundef nonnull align 8 dereferenceable(24) %3, i64 noundef %4) #0 align 2 personality ptr @__gxx_personality_v0 {
  %6 = alloca ptr, align 8
  %7 = alloca ptr, align 8
  %8 = alloca ptr, align 8
  %9 = alloca ptr, align 8
  %10 = alloca i64, align 8
  %11 = alloca ptr, align 8
  %12 = alloca %"struct.vcpkg::LocalizedString", align 8
  %13 = alloca %"struct.vcpkg::msg::MessageT.231", align 8
  %14 = alloca ptr, align 8
  %15 = alloca i32, align 4
  store ptr %0, ptr %6, align 8
  store ptr %1, ptr %7, align 8
  store ptr %2, ptr %8, align 8
  store ptr %3, ptr %9, align 8
  store i64 %4, ptr %10, align 8
  %16 = load ptr, ptr %6, align 8
  %17 = load i64, ptr %10, align 8
  %18 = load ptr, ptr %9, align 8
  %19 = call noundef i64 @_ZNKSt6vectorISt4pairIN5vcpkg9SourceLocENSt7__cxx1112basic_stringIcSt11char_traitsIcESaIcEEEESaIS9_EE4sizeEv(ptr noundef nonnull align 8 dereferenceable(24) %18) #8
  %20 = icmp uge i64 %17, %19
  br i1 %20, label %21, label %23

21:                                               ; preds = %5
  %22 = load ptr, ptr %7, align 8
  store i8 1, ptr %22, align 1
  br label %57

23:                                               ; preds = %5
  %24 = load ptr, ptr %9, align 8
  %25 = load i64, ptr %10, align 8
  %26 = call noundef nonnull align 8 dereferenceable(104) ptr @_ZNKSt6vectorISt4pairIN5vcpkg9SourceLocENSt7__cxx1112basic_stringIcSt11char_traitsIcESaIcEEEESaIS9_EEixEm(ptr noundef nonnull align 8 dereferenceable(24) %24, i64 noundef %25) #8
  %27 = getelementptr inbounds %"struct.std::pair.611", ptr %26, i32 0, i32 1
  store ptr %27, ptr %11, align 8
  %28 = load ptr, ptr %11, align 8
  %29 = call noundef zeroext i1 @_ZSteqIcSt11char_traitsIcESaIcEEbRKNSt7__cxx1112basic_stringIT_T0_T1_EEPKS5_(ptr noundef nonnull align 8 dereferenceable(32) %28, ptr noundef @.str.184)
  br i1 %29, label %30, label %32

30:                                               ; preds = %23
  %31 = load ptr, ptr %7, align 8
  store i8 1, ptr %31, align 1
  br label %57

32:                                               ; preds = %23
  %33 = load ptr, ptr %11, align 8
  %34 = call noundef zeroext i1 @_ZSteqIcSt11char_traitsIcESaIcEEbRKNSt7__cxx1112basic_stringIT_T0_T1_EEPKS5_(ptr noundef nonnull align 8 dereferenceable(32) %33, ptr noundef @.str.185)
  br i1 %34, label %35, label %37

35:                                               ; preds = %32
  %36 = load ptr, ptr %8, align 8
  store i8 1, ptr %36, align 1
  br label %56

37:                                               ; preds = %32
  %38 = load ptr, ptr %11, align 8
  %39 = call noundef zeroext i1 @_ZSteqIcSt11char_traitsIcESaIcEEbRKNSt7__cxx1112basic_stringIT_T0_T1_EEPKS5_(ptr noundef nonnull align 8 dereferenceable(32) %38, ptr noundef @.str.186)
  br i1 %39, label %40, label %43

40:                                               ; preds = %37
  %41 = load ptr, ptr %7, align 8
  store i8 1, ptr %41, align 1
  %42 = load ptr, ptr %8, align 8
  store i8 1, ptr %42, align 1
  br label %55

43:                                               ; preds = %37
  call void @llvm.memcpy.p0.p0.i64(ptr align 8 %13, ptr align 8 @_ZN5vcpkg29msgExpectedReadWriteReadWriteE, i64 8, i1 false)
  %44 = getelementptr inbounds %"struct.vcpkg::msg::MessageT.231", ptr %13, i32 0, i32 0
  %45 = load i64, ptr %44, align 8
  call void @_ZN5vcpkg3msg6formatIJEJEEENS_15LocalizedStringENS0_8MessageTIJDpT_EEEDpNS0_6TagArgINS_8identityIS4_E4typeET0_EE(ptr dead_on_unwind writable sret(%"struct.vcpkg::LocalizedString") align 8 %12, i64 %45)
  %46 = load ptr, ptr %9, align 8
  %47 = load i64, ptr %10, align 8
  %48 = call noundef nonnull align 8 dereferenceable(104) ptr @_ZNKSt6vectorISt4pairIN5vcpkg9SourceLocENSt7__cxx1112basic_stringIcSt11char_traitsIcESaIcEEEESaIS9_EEixEm(ptr noundef nonnull align 8 dereferenceable(24) %46, i64 noundef %47) #8
  %49 = getelementptr inbounds %"struct.std::pair.611", ptr %48, i32 0, i32 0
  invoke void @_ZN5vcpkg10ParserBase9add_errorEONS_15LocalizedStringERKNS_9SourceLocE(ptr noundef nonnull align 8 dereferenceable(168) %16, ptr noundef nonnull align 8 dereferenceable(32) %12, ptr noundef nonnull align 8 dereferenceable(72) %49)
          to label %50 unwind label %51

50:                                               ; preds = %43
  call void @_ZN5vcpkg15LocalizedStringD2Ev(ptr noundef nonnull align 8 dereferenceable(32) %12) #8
  br label %57

51:                                               ; preds = %43
  %52 = landingpad { ptr, i32 }
          cleanup
  %53 = extractvalue { ptr, i32 } %52, 0
  store ptr %53, ptr %14, align 8
  %54 = extractvalue { ptr, i32 } %52, 1
  store i32 %54, ptr %15, align 4
  call void @_ZN5vcpkg15LocalizedStringD2Ev(ptr noundef nonnull align 8 dereferenceable(32) %12) #8
  br label %58

55:                                               ; preds = %40
  br label %56

56:                                               ; preds = %55, %35
  br label %57

57:                                               ; preds = %56, %50, %30, %21
  ret void

58:                                               ; preds = %51
  %59 = load ptr, ptr %14, align 8
  %60 = load i32, ptr %15, align 4
  %61 = insertvalue { ptr, i32 } poison, ptr %59, 0
  %62 = insertvalue { ptr, i32 } %61, i32 %60, 1
  resume { ptr, i32 } %62
}