; Function Attrs: mustprogress uwtable
define internal fastcc void @_ZN12_GLOBAL__N_120ConfigSegmentsParser16handle_readwriteERbS1_RKSt6vectorISt4pairIN5vcpkg9SourceLocENSt7__cxx1112basic_stringIcSt11char_traitsIcESaIcEEEESaISC_EEm(ptr noundef nonnull align 8 dereferenceable(168) %0, ptr nocapture noundef nonnull writeonly align 1 dereferenceable(1) %1, ptr nocapture noundef nonnull writeonly align 1 dereferenceable(1) %2, ptr nocapture noundef nonnull readonly align 8 dereferenceable(24) %3, i64 noundef %4) unnamed_addr #0 align 2 personality ptr @__gxx_personality_v0 {
  %6 = alloca %"struct.vcpkg::LocalizedString", align 8
  %7 = getelementptr inbounds i8, ptr %3, i64 8
  %8 = load ptr, ptr %7, align 8
  %9 = load ptr, ptr %3, align 8
  %10 = ptrtoint ptr %8 to i64
  %11 = ptrtoint ptr %9 to i64
  %12 = sub i64 %10, %11
  %13 = sdiv exact i64 %12, 104
  %.not = icmp ugt i64 %13, %4
  br i1 %.not, label %15, label %14

14:                                               ; preds = %5
  store i8 1, ptr %1, align 1
  br label %34

15:                                               ; preds = %5
  %16 = getelementptr inbounds %"struct.std::pair.611", ptr %9, i64 %4, i32 1
  %17 = tail call noundef i32 @_ZNKSt7__cxx1112basic_stringIcSt11char_traitsIcESaIcEE7compareEPKc(ptr noundef nonnull align 8 dereferenceable(32) %16, ptr noundef nonnull @.str.184) #24
  %18 = icmp eq i32 %17, 0
  br i1 %18, label %19, label %20

19:                                               ; preds = %15
  store i8 1, ptr %1, align 1
  br label %34

20:                                               ; preds = %15
  %21 = tail call noundef i32 @_ZNKSt7__cxx1112basic_stringIcSt11char_traitsIcESaIcEE7compareEPKc(ptr noundef nonnull align 8 dereferenceable(32) %16, ptr noundef nonnull @.str.185) #24
  %22 = icmp eq i32 %21, 0
  br i1 %22, label %23, label %24

23:                                               ; preds = %20
  store i8 1, ptr %2, align 1
  br label %34

24:                                               ; preds = %20
  %25 = tail call noundef i32 @_ZNKSt7__cxx1112basic_stringIcSt11char_traitsIcESaIcEE7compareEPKc(ptr noundef nonnull align 8 dereferenceable(32) %16, ptr noundef nonnull @.str.186) #24
  %26 = icmp eq i32 %25, 0
  br i1 %26, label %27, label %28

27:                                               ; preds = %24
  store i8 1, ptr %1, align 1
  store i8 1, ptr %2, align 1
  br label %34

28:                                               ; preds = %24
  %.sroa.0.0.copyload = load i64, ptr @_ZN5vcpkg29msgExpectedReadWriteReadWriteE, align 8
  call void @_ZN5vcpkg3msg6formatIJEJEEENS_15LocalizedStringENS0_8MessageTIJDpT_EEEDpNS0_6TagArgINS_8identityIS4_E4typeET0_EE(ptr dead_on_unwind nonnull writable sret(%"struct.vcpkg::LocalizedString") align 8 %6, i64 %.sroa.0.0.copyload)
  %29 = load ptr, ptr %3, align 8
  %30 = getelementptr inbounds %"struct.std::pair.611", ptr %29, i64 %4
  invoke void @_ZN5vcpkg10ParserBase9add_errorEONS_15LocalizedStringERKNS_9SourceLocE(ptr noundef nonnull align 8 dereferenceable(168) %0, ptr noundef nonnull align 8 dereferenceable(32) %6, ptr noundef nonnull align 8 dereferenceable(72) %30)
          to label %31 unwind label %32

31:                                               ; preds = %28
  call void @_ZNSt7__cxx1112basic_stringIcSt11char_traitsIcESaIcEED1Ev(ptr noundef nonnull align 8 dereferenceable(32) %6) #24
  br label %34

32:                                               ; preds = %28
  %33 = landingpad { ptr, i32 }
          cleanup
  call void @_ZNSt7__cxx1112basic_stringIcSt11char_traitsIcESaIcEED1Ev(ptr noundef nonnull align 8 dereferenceable(32) %6) #24
  resume { ptr, i32 } %33

34:                                               ; preds = %23, %27, %31, %19, %14
  ret void
}